target datalayout = "e-m:e-p270:32:32-p271:32:32-p272:64:64-i64:64-i128:128-f80:128-n8:16:32:64-S128"
target triple = "x86_64-pc-linux-gnu"

%struct._dcerpc_info = type { ptr, i32, i64, i8, i8, i8, i32, i32, i32, i32, i32, i32, i32, i32, ptr, ptr, ptr, ptr, %struct.anon }
%struct.anon = type { i8, ptr, ptr, ptr, i8 }

; Function Attrs: null_pointer_is_valid sspstrong uwtable
define hidden i32 @dissect_dcerpc_uint16s(ptr noundef %0, i32 noundef %1, ptr noundef %2, ptr noundef %3, ptr noundef %4, i32 noundef %5, i32 noundef %6) #0 {
  %8 = alloca ptr, align 8
  %9 = alloca i32, align 4
  %10 = alloca ptr, align 8
  %11 = alloca ptr, align 8
  %12 = alloca ptr, align 8
  %13 = alloca i32, align 4
  %14 = alloca i32, align 4
  store ptr %0, ptr %8, align 8
  store i32 %1, ptr %9, align 4
  store ptr %2, ptr %10, align 8
  store ptr %3, ptr %11, align 8
  store ptr %4, ptr %12, align 8
  store i32 %5, ptr %13, align 4
  store i32 %6, ptr %14, align 4
  %15 = load ptr, ptr %11, align 8
  %16 = load i32, ptr %13, align 4
  %17 = load ptr, ptr %8, align 8
  %18 = load i32, ptr %9, align 4
  %19 = load i32, ptr %14, align 4
  %20 = mul i32 %19, 2
  %21 = load ptr, ptr %12, align 8
  %22 = getelementptr i8, ptr %21, i64 0
  %23 = load i8, ptr %22, align 1
  %24 = zext i8 %23 to i32
  %25 = and i32 %24, 16
  %26 = icmp ne i32 %25, 0
  %27 = select i1 %26, i32 -2147483648, i32 0
  %28 = call ptr @proto_tree_add_item(ptr noundef %15, i32 noundef %16, ptr noundef %17, i32 noundef %18, i32 noundef %20, i32 noundef %27)
  %29 = load i32, ptr %9, align 4
  %30 = load i32, ptr %14, align 4
  %31 = mul i32 %30, 2
  %32 = add i32 %29, %31
  ret i32 %32
}

; Function Attrs: null_pointer_is_valid sspstrong uwtable
define hidden i32 @dissect_ndr_uint16s(ptr noundef %0, i32 noundef %1, ptr noundef %2, ptr noundef %3, ptr noundef %4, ptr noundef %5, i32 noundef %6, i32 noundef %7) #0 {
  %9 = alloca i32, align 4
  %10 = alloca ptr, align 8
  %11 = alloca i32, align 4
  %12 = alloca ptr, align 8
  %13 = alloca ptr, align 8
  %14 = alloca ptr, align 8
  %15 = alloca ptr, align 8
  %16 = alloca i32, align 4
  %17 = alloca i32, align 4
  store ptr %0, ptr %10, align 8
  store i32 %1, ptr %11, align 4
  store ptr %2, ptr %12, align 8
  store ptr %3, ptr %13, align 8
  store ptr %4, ptr %14, align 8
  store ptr %5, ptr %15, align 8
  store i32 %6, ptr %16, align 4
  store i32 %7, ptr %17, align 4
  %18 = load ptr, ptr %14, align 8
  %19 = getelementptr inbounds nuw %struct._dcerpc_info, ptr %18, i32 0, i32 4
  %20 = load i8, ptr %19, align 1, !range !6, !noundef !7
  %21 = trunc i8 %20 to i1
  br i1 %21, label %22, label %24

22:                                               ; preds = %8
  %23 = load i32, ptr %11, align 4
  store i32 %23, ptr %9, align 4
  br label %40

24:                                               ; preds = %8
  %25 = load i32, ptr %11, align 4
  %26 = srem i32 %25, 2
  %27 = icmp ne i32 %26, 0
  br i1 %27, label %28, label %31

28:                                               ; preds = %24
  %29 = load i32, ptr %11, align 4
  %30 = add i32 %29, 1
  store i32 %30, ptr %11, align 4
  br label %31

31:                                               ; preds = %28, %24
  %32 = load ptr, ptr %10, align 8
  %33 = load i32, ptr %11, align 4
  %34 = load ptr, ptr %12, align 8
  %35 = load ptr, ptr %13, align 8
  %36 = load ptr, ptr %15, align 8
  %37 = load i32, ptr %16, align 4
  %38 = load i32, ptr %17, align 4
  %39 = call i32 @dissect_dcerpc_uint16s(ptr noundef %32, i32 noundef %33, ptr noundef %34, ptr noundef %35, ptr noundef %36, i32 noundef %37, i32 noundef %38)
  store i32 %39, ptr %9, align 4
  br label %40

40:                                               ; preds = %31, %22
  %41 = load i32, ptr %9, align 4
  ret i32 %41
}