; Function Attrs: null_pointer_is_valid sspstrong uwtable
define hidden noundef i32 @dissect_ndr_uint16s(ptr noundef %0, i32 noundef %1, ptr noundef readnone captures(none) %2, ptr noundef %3, ptr noundef readonly captures(none) %4, ptr noundef readonly captures(none) %5, i32 noundef %6, i32 noundef %7) local_unnamed_addr #0 {
  %9 = getelementptr inbounds nuw i8, ptr %4, i64 25
  %10 = load i8, ptr %9, align 1, !range !6, !noundef !7
  %11 = trunc nuw i8 %10 to i1
  br i1 %11, label %21, label %12

12:                                               ; preds = %8
  %13 = and i32 %1, 1
  %spec.select = add i32 %13, %1
  %14 = shl i32 %7, 1
  %15 = load i8, ptr %5, align 1
  %16 = and i8 %15, 16
  %17 = zext nneg i8 %16 to i32
  %18 = shl nuw i32 %17, 27
  %19 = tail call ptr @proto_tree_add_item(ptr noundef %3, i32 noundef %6, ptr noundef %0, i32 noundef %spec.select, i32 noundef %14, i32 noundef %18)
  %20 = add i32 %14, %spec.select
  br label %21

21:                                               ; preds = %8, %12
  %.0 = phi i32 [ %20, %12 ], [ %1, %8 ]
  ret i32 %.0
}